; ModuleID = 'source-C-CXX/18/1939.c'
source_filename = "source-C-CXX/18/1939.c"
target datalayout = "e-m:e-p270:32:32-p271:32:32-p272:64:64-i64:64-f80:128-n8:16:32:64-S128"
target triple = "x86_64-pc-linux-gnu"

@.str = private unnamed_addr constant [3 x i8] c"%s\00", align 1

; Function Attrs: nounwind sspstrong uwtable
define dso_local i32 @main() local_unnamed_addr #0 {
  %1 = alloca [100 x i8], align 16
  %2 = alloca [100 x i8], align 16
  %3 = alloca [100 x i8], align 16
  %4 = getelementptr inbounds [100 x i8], [100 x i8]* %1, i64 0, i64 0
  call void @llvm.lifetime.start.p0i8(i64 100, i8* nonnull %4) #6
  %5 = getelementptr inbounds [100 x i8], [100 x i8]* %2, i64 0, i64 0
  call void @llvm.lifetime.start.p0i8(i64 100, i8* nonnull %5) #6
  %6 = getelementptr inbounds [100 x i8], [100 x i8]* %3, i64 0, i64 0
  call void @llvm.lifetime.start.p0i8(i64 100, i8* nonnull %6) #6
  %7 = call i32 (i8*, ...) bitcast (i32 (...)* @gets to i32 (i8*, ...)*)(i8* nonnull %4) #6
  %8 = call i32 (i8*, ...) bitcast (i32 (...)* @gets to i32 (i8*, ...)*)(i8* nonnull %5) #6
  %9 = call i32 (i8*, ...) bitcast (i32 (...)* @gets to i32 (i8*, ...)*)(i8* nonnull %6) #6
  %10 = call i64 @strlen(i8* noundef nonnull %4) #7
  %11 = trunc i64 %10 to i32
  %12 = call i64 @strlen(i8* noundef nonnull %5) #7
  %13 = trunc i64 %12 to i32
  %14 = icmp sgt i32 %11, 0
  br i1 %14, label %15, label %80

15:                                               ; preds = %0
  %16 = icmp sgt i32 %13, 0
  br i1 %16, label %17, label %57

17:                                               ; preds = %15
  %18 = shl i64 %12, 32
  %19 = ashr exact i64 %18, 32
  %20 = and i64 %12, 4294967295
  br label %21

21:                                               ; preds = %17, %48
  %22 = phi i32 [ %50, %48 ], [ 0, %17 ]
  %23 = sext i32 %22 to i64
  br label %34

24:                                               ; preds = %34
  %25 = icmp eq i64 %42, %20
  br i1 %25, label %52, label %34, !llvm.loop !5

26:                                               ; preds = %52
  %27 = sext i32 %56 to i64
  %28 = getelementptr inbounds [100 x i8], [100 x i8]* %1, i64 0, i64 %27
  %29 = load i8, i8* %28, align 1, !tbaa !7
  %30 = icmp eq i8 %29, 32
  br i1 %30, label %31, label %43

31:                                               ; preds = %52, %26
  %32 = call i32 (i8*, ...) @printf(i8* nonnull dereferenceable(1) getelementptr inbounds ([3 x i8], [3 x i8]* @.str, i64 0, i64 0), i8* nonnull %6)
  %33 = add i32 %56, %13
  br label %48

34:                                               ; preds = %21, %24
  %35 = phi i64 [ 0, %21 ], [ %42, %24 ]
  %36 = getelementptr inbounds [100 x i8], [100 x i8]* %2, i64 0, i64 %35
  %37 = load i8, i8* %36, align 1, !tbaa !7
  %38 = add nsw i64 %35, %23
  %39 = getelementptr inbounds [100 x i8], [100 x i8]* %1, i64 0, i64 %38
  %40 = load i8, i8* %39, align 1, !tbaa !7
  %41 = icmp eq i8 %37, %40
  %42 = add nuw nsw i64 %35, 1
  br i1 %41, label %24, label %43

43:                                               ; preds = %34, %26
  %44 = getelementptr inbounds [100 x i8], [100 x i8]* %1, i64 0, i64 %23
  %45 = load i8, i8* %44, align 1, !tbaa !7
  %46 = sext i8 %45 to i32
  %47 = call i32 @putchar(i32 %46)
  br label %48

48:                                               ; preds = %43, %31
  %49 = phi i32 [ %33, %31 ], [ %22, %43 ]
  %50 = add nsw i32 %49, 1
  %51 = icmp slt i32 %50, %11
  br i1 %51, label %21, label %80, !llvm.loop !10

52:                                               ; preds = %24
  %53 = icmp sge i64 %42, %19
  %54 = icmp ne i32 %22, 0
  %55 = select i1 %53, i1 %54, i1 false
  %56 = add i32 %22, -1
  br i1 %55, label %26, label %31

57:                                               ; preds = %15, %76
  %58 = phi i32 [ %78, %76 ], [ 0, %15 ]
  %59 = icmp eq i32 %58, 0
  br i1 %59, label %66, label %60

60:                                               ; preds = %57
  %61 = add i32 %58, -1
  %62 = sext i32 %61 to i64
  %63 = getelementptr inbounds [100 x i8], [100 x i8]* %1, i64 0, i64 %62
  %64 = load i8, i8* %63, align 1, !tbaa !7
  %65 = icmp eq i8 %64, 32
  br i1 %65, label %66, label %70

66:                                               ; preds = %57, %60
  %67 = phi i32 [ %61, %60 ], [ -1, %57 ]
  %68 = call i32 (i8*, ...) @printf(i8* nonnull dereferenceable(1) getelementptr inbounds ([3 x i8], [3 x i8]* @.str, i64 0, i64 0), i8* nonnull %6)
  %69 = add i32 %67, %13
  br label %76

70:                                               ; preds = %60
  %71 = sext i32 %58 to i64
  %72 = getelementptr inbounds [100 x i8], [100 x i8]* %1, i64 0, i64 %71
  %73 = load i8, i8* %72, align 1, !tbaa !7
  %74 = sext i8 %73 to i32
  %75 = call i32 @putchar(i32 %74)
  br label %76

76:                                               ; preds = %66, %70
  %77 = phi i32 [ %69, %66 ], [ %58, %70 ]
  %78 = add nsw i32 %77, 1
  %79 = icmp slt i32 %78, %11
  br i1 %79, label %57, label %80, !llvm.loop !10

80:                                               ; preds = %76, %48, %0
  call void @llvm.lifetime.end.p0i8(i64 100, i8* nonnull %6) #6
  call void @llvm.lifetime.end.p0i8(i64 100, i8* nonnull %5) #6
  call void @llvm.lifetime.end.p0i8(i64 100, i8* nonnull %4) #6
  ret i32 0
}

; Function Attrs: argmemonly mustprogress nofree nosync nounwind willreturn
declare void @llvm.lifetime.start.p0i8(i64 immarg, i8* nocapture) #1

declare i32 @gets(...) local_unnamed_addr #2

; Function Attrs: argmemonly mustprogress nofree nounwind readonly willreturn
declare i64 @strlen(i8* nocapture) local_unnamed_addr #3

; Function Attrs: nofree nounwind
declare noundef i32 @printf(i8* nocapture noundef readonly, ...) local_unnamed_addr #4

; Function Attrs: argmemonly mustprogress nofree nosync nounwind willreturn
declare void @llvm.lifetime.end.p0i8(i64 immarg, i8* nocapture) #1

; Function Attrs: nofree nounwind
declare noundef i32 @putchar(i32 noundef) local_unnamed_addr #5


!llvm.module.flags = !{!0, !1, !2, !3}
!llvm.ident = !{!4}

!0 = !{i32 1, !"wchar_size", i32 4}
!1 = !{i32 7, !"PIC Level", i32 2}
!2 = !{i32 7, !"PIE Level", i32 2}
!3 = !{i32 7, !"uwtable", i32 1}
!4 = !{!"clang version 13.0.0"}
!5 = distinct !{!5, !6}
!6 = !{!"llvm.loop.mustprogress"}
!7 = !{!8, !8, i64 0}
!8 = !{!"omnipotent char", !9, i64 0}
!9 = !{!"Simple C/C++ TBAA"}
!10 = distinct !{!10, !6}
